target datalayout = "e-m:e-p270:32:32-p271:32:32-p272:64:64-i64:64-i128:128-f80:128-n8:16:32:64-S128"
target triple = "x86_64-pc-linux-gnu"

%struct.ARKodeHAdaptMemRec = type { double, double, double, double, i32, double, double, double, double, double, double, i32, i32, i32, i32, ptr, i32, ptr, ptr, i64, i64 }
%struct.ARKodeMemRec = type { ptr, double, ptr, i32, i32, double, double, ptr, i32, double, ptr, i32, i32, ptr, ptr, i32, ptr, ptr, i32, ptr, ptr, ptr, ptr, ptr, ptr, ptr, ptr, ptr, ptr, ptr, ptr, ptr, ptr, ptr, i32, ptr, ptr, i32, ptr, i32, ptr, ptr, ptr, ptr, ptr, ptr, ptr, ptr, ptr, ptr, ptr, ptr, ptr, ptr, ptr, ptr, ptr, ptr, ptr, ptr, ptr, ptr, ptr, ptr, ptr, ptr, i32, ptr, ptr, ptr, ptr, ptr, ptr, ptr, i32, ptr, ptr, ptr, i32, ptr, ptr, ptr, ptr, ptr, ptr, ptr, i32, i32, i32, i32, double, double, double, double, double, double, double, double, double, double, i32, ptr, i64, i32, i32, i32, i32, i64, i64, i32, i64, i64, i64, i64, i64, i64, i64, double, double, double, double, double, i32, double, double, i32, i32, i32, i32, i32, i32, i32, i32, ptr, i32, ptr, ptr, ptr, ptr, i32, i32, i32 }

@__func__.arkAdapt = private unnamed_addr constant [9 x i8] c"arkAdapt\00", align 1
@.str.20 = private unnamed_addr constant [121 x i8] c"generated/home/dtcxzyw/WorkSpace/Projects/compilers/llvm-opt-benchmark/bench/sundials/sundials/src/arkode/arkode_adapt.c\00", align 1
@.str.21 = private unnamed_addr constant [41 x i8] c"SUNAdaptController_EstimateStep failure.\00", align 1
@.str.22 = private unnamed_addr constant [38 x i8] c"Error in explicit stability function.\00", align 1

; Function Attrs: nounwind uwtable
define i32 @arkAdapt(ptr noundef %0, ptr noundef %1, ptr noundef %2, double noundef %3, double noundef %4, double noundef %5) #0 {
  %7 = alloca i32, align 4
  %8 = alloca ptr, align 8
  %9 = alloca ptr, align 8
  %10 = alloca ptr, align 8
  %11 = alloca double, align 8
  %12 = alloca double, align 8
  %13 = alloca double, align 8
  %14 = alloca i32, align 4
  %15 = alloca double, align 8
  %16 = alloca double, align 8
  %17 = alloca double, align 8
  %18 = alloca i32, align 4
  %19 = alloca i32, align 4
  store ptr %0, ptr %8, align 8, !tbaa !35
  store ptr %1, ptr %9, align 8, !tbaa !3
  store ptr %2, ptr %10, align 8, !tbaa !37
  store double %3, ptr %11, align 8, !tbaa !39
  store double %4, ptr %12, align 8, !tbaa !39
  store double %5, ptr %13, align 8, !tbaa !39
  call void @llvm.lifetime.start.p0(i64 4, ptr %14) #7
  call void @llvm.lifetime.start.p0(i64 8, ptr %15) #7
  call void @llvm.lifetime.start.p0(i64 8, ptr %16) #7
  call void @llvm.lifetime.start.p0(i64 8, ptr %17) #7
  call void @llvm.lifetime.start.p0(i64 4, ptr %18) #7
  %20 = load ptr, ptr %9, align 8, !tbaa !3
  %21 = getelementptr inbounds nuw %struct.ARKodeHAdaptMemRec, ptr %20, i32 0, i32 15
  %22 = load ptr, ptr %21, align 8, !tbaa !34
  %23 = icmp eq ptr %22, null
  br i1 %23, label %24, label %27

24:                                               ; preds = %6
  %25 = load ptr, ptr %8, align 8, !tbaa !35
  %26 = getelementptr inbounds nuw %struct.ARKodeMemRec, ptr %25, i32 0, i32 97
  store double 1.000000e+00, ptr %26, align 8, !tbaa !40
  store i32 0, ptr %7, align 4
  store i32 1, ptr %19, align 4
  br label %291

27:                                               ; preds = %6
  %28 = load ptr, ptr %9, align 8, !tbaa !3
  %29 = getelementptr inbounds nuw %struct.ARKodeHAdaptMemRec, ptr %28, i32 0, i32 13
  %30 = load i32, ptr %29, align 8, !tbaa !28
  %31 = icmp eq i32 %30, 0
  br i1 %31, label %32, label %40

32:                                               ; preds = %27
  %33 = load ptr, ptr %9, align 8, !tbaa !3
  %34 = getelementptr inbounds nuw %struct.ARKodeHAdaptMemRec, ptr %33, i32 0, i32 11
  %35 = load i32, ptr %34, align 8, !tbaa !29
  %36 = load ptr, ptr %9, align 8, !tbaa !3
  %37 = getelementptr inbounds nuw %struct.ARKodeHAdaptMemRec, ptr %36, i32 0, i32 14
  %38 = load i32, ptr %37, align 4, !tbaa !31
  %39 = add nsw i32 %35, %38
  store i32 %39, ptr %18, align 4, !tbaa !46
  br label %76

40:                                               ; preds = %27
  %41 = load ptr, ptr %9, align 8, !tbaa !3
  %42 = getelementptr inbounds nuw %struct.ARKodeHAdaptMemRec, ptr %41, i32 0, i32 13
  %43 = load i32, ptr %42, align 8, !tbaa !28
  %44 = icmp eq i32 %43, 1
  br i1 %44, label %45, label %53

45:                                               ; preds = %40
  %46 = load ptr, ptr %9, align 8, !tbaa !3
  %47 = getelementptr inbounds nuw %struct.ARKodeHAdaptMemRec, ptr %46, i32 0, i32 12
  %48 = load i32, ptr %47, align 4, !tbaa !30
  %49 = load ptr, ptr %9, align 8, !tbaa !3
  %50 = getelementptr inbounds nuw %struct.ARKodeHAdaptMemRec, ptr %49, i32 0, i32 14
  %51 = load i32, ptr %50, align 4, !tbaa !31
  %52 = add nsw i32 %48, %51
  store i32 %52, ptr %18, align 4, !tbaa !46
  br label %75

53:                                               ; preds = %40
  %54 = load ptr, ptr %9, align 8, !tbaa !3
  %55 = getelementptr inbounds nuw %struct.ARKodeHAdaptMemRec, ptr %54, i32 0, i32 11
  %56 = load i32, ptr %55, align 8, !tbaa !29
  %57 = load ptr, ptr %9, align 8, !tbaa !3
  %58 = getelementptr inbounds nuw %struct.ARKodeHAdaptMemRec, ptr %57, i32 0, i32 12
  %59 = load i32, ptr %58, align 4, !tbaa !30
  %60 = icmp slt i32 %56, %59
  br i1 %60, label %61, label %65

61:                                               ; preds = %53
  %62 = load ptr, ptr %9, align 8, !tbaa !3
  %63 = getelementptr inbounds nuw %struct.ARKodeHAdaptMemRec, ptr %62, i32 0, i32 11
  %64 = load i32, ptr %63, align 8, !tbaa !29
  br label %69

65:                                               ; preds = %53
  %66 = load ptr, ptr %9, align 8, !tbaa !3
  %67 = getelementptr inbounds nuw %struct.ARKodeHAdaptMemRec, ptr %66, i32 0, i32 12
  %68 = load i32, ptr %67, align 4, !tbaa !30
  br label %69

69:                                               ; preds = %65, %61
  %70 = phi i32 [ %64, %61 ], [ %68, %65 ]
  %71 = load ptr, ptr %9, align 8, !tbaa !3
  %72 = getelementptr inbounds nuw %struct.ARKodeHAdaptMemRec, ptr %71, i32 0, i32 14
  %73 = load i32, ptr %72, align 4, !tbaa !31
  %74 = add nsw i32 %70, %73
  store i32 %74, ptr %18, align 4, !tbaa !46
  br label %75

75:                                               ; preds = %69, %45
  br label %76

76:                                               ; preds = %75, %32
  %77 = load ptr, ptr %9, align 8, !tbaa !3
  %78 = getelementptr inbounds nuw %struct.ARKodeHAdaptMemRec, ptr %77, i32 0, i32 15
  %79 = load ptr, ptr %78, align 8, !tbaa !34
  %80 = load double, ptr %12, align 8, !tbaa !39
  %81 = load i32, ptr %18, align 4, !tbaa !46
  %82 = load double, ptr %13, align 8, !tbaa !39
  %83 = call i32 @SUNAdaptController_EstimateStep(ptr noundef %79, double noundef %80, i32 noundef %81, double noundef %82, ptr noundef %15)
  store i32 %83, ptr %14, align 4, !tbaa !46
  %84 = load i32, ptr %14, align 4, !tbaa !46
  %85 = icmp ne i32 %84, 0
  br i1 %85, label %86, label %88

86:                                               ; preds = %76
  %87 = load ptr, ptr %8, align 8, !tbaa !35
  call void (ptr, i32, i32, ptr, ptr, ptr, ...) @arkProcessError(ptr noundef %87, i32 noundef -47, i32 noundef 128, ptr noundef @__func__.arkAdapt, ptr noundef @.str.20, ptr noundef @.str.21)
  store i32 -47, ptr %7, align 4
  store i32 1, ptr %19, align 4
  br label %291

88:                                               ; preds = %76
  %89 = load double, ptr %12, align 8, !tbaa !39
  %90 = load double, ptr %12, align 8, !tbaa !39
  %91 = call double @llvm.fabs.f64(double %90)
  %92 = fdiv double %89, %91
  store double %92, ptr %17, align 8, !tbaa !39
  %93 = load ptr, ptr %9, align 8, !tbaa !3
  %94 = getelementptr inbounds nuw %struct.ARKodeHAdaptMemRec, ptr %93, i32 0, i32 17
  %95 = load ptr, ptr %94, align 8, !tbaa !32
  %96 = load ptr, ptr %10, align 8, !tbaa !37
  %97 = load double, ptr %11, align 8, !tbaa !39
  %98 = load ptr, ptr %9, align 8, !tbaa !3
  %99 = getelementptr inbounds nuw %struct.ARKodeHAdaptMemRec, ptr %98, i32 0, i32 18
  %100 = load ptr, ptr %99, align 8, !tbaa !33
  %101 = call i32 %95(ptr noundef %96, double noundef %97, ptr noundef %16, ptr noundef %100)
  store i32 %101, ptr %14, align 4, !tbaa !46
  %102 = load i32, ptr %14, align 4, !tbaa !46
  %103 = icmp ne i32 %102, 0
  br i1 %103, label %104, label %106

104:                                              ; preds = %88
  %105 = load ptr, ptr %8, align 8, !tbaa !35
  call void (ptr, i32, i32, ptr, ptr, ptr, ...) @arkProcessError(ptr noundef %105, i32 noundef -22, i32 noundef 140, ptr noundef @__func__.arkAdapt, ptr noundef @.str.20, ptr noundef @.str.22)
  store i32 -22, ptr %7, align 4
  store i32 1, ptr %19, align 4
  br label %291

106:                                              ; preds = %88
  %107 = load double, ptr %16, align 8, !tbaa !39
  %108 = fcmp ole double %107, 0.000000e+00
  br i1 %108, label %109, label %113

109:                                              ; preds = %106
  %110 = load double, ptr %12, align 8, !tbaa !39
  %111 = call double @llvm.fabs.f64(double %110)
  %112 = fmul double 1.000000e+30, %111
  store double %112, ptr %16, align 8, !tbaa !39
  br label %113

113:                                              ; preds = %109, %106
  %114 = load ptr, ptr %9, align 8, !tbaa !3
  %115 = getelementptr inbounds nuw %struct.ARKodeHAdaptMemRec, ptr %114, i32 0, i32 7
  %116 = load double, ptr %115, align 8, !tbaa !24
  %117 = load double, ptr %15, align 8, !tbaa !39
  %118 = fmul double %117, %116
  store double %118, ptr %15, align 8, !tbaa !39
  %119 = load ptr, ptr %9, align 8, !tbaa !3
  %120 = getelementptr inbounds nuw %struct.ARKodeHAdaptMemRec, ptr %119, i32 0, i32 6
  %121 = load double, ptr %120, align 8, !tbaa !23
  %122 = load double, ptr %17, align 8, !tbaa !39
  %123 = fmul double %121, %122
  %124 = load double, ptr %16, align 8, !tbaa !39
  %125 = fmul double %124, %123
  store double %125, ptr %16, align 8, !tbaa !39
  %126 = load double, ptr %17, align 8, !tbaa !39
  %127 = load double, ptr %15, align 8, !tbaa !39
  %128 = call double @llvm.fabs.f64(double %127)
  %129 = load ptr, ptr %9, align 8, !tbaa !3
  %130 = getelementptr inbounds nuw %struct.ARKodeHAdaptMemRec, ptr %129, i32 0, i32 0
  %131 = load double, ptr %130, align 8, !tbaa !17
  %132 = load double, ptr %12, align 8, !tbaa !39
  %133 = fmul double %131, %132
  %134 = call double @llvm.fabs.f64(double %133)
  %135 = fcmp olt double %128, %134
  br i1 %135, label %136, label %139

136:                                              ; preds = %113
  %137 = load double, ptr %15, align 8, !tbaa !39
  %138 = call double @llvm.fabs.f64(double %137)
  br label %146

139:                                              ; preds = %113
  %140 = load ptr, ptr %9, align 8, !tbaa !3
  %141 = getelementptr inbounds nuw %struct.ARKodeHAdaptMemRec, ptr %140, i32 0, i32 0
  %142 = load double, ptr %141, align 8, !tbaa !17
  %143 = load double, ptr %12, align 8, !tbaa !39
  %144 = fmul double %142, %143
  %145 = call double @llvm.fabs.f64(double %144)
  br label %146

146:                                              ; preds = %139, %136
  %147 = phi double [ %138, %136 ], [ %145, %139 ]
  %148 = fmul double %126, %147
  store double %148, ptr %15, align 8, !tbaa !39
  %149 = load double, ptr %17, align 8, !tbaa !39
  %150 = load double, ptr %15, align 8, !tbaa !39
  %151 = call double @llvm.fabs.f64(double %150)
  %152 = load ptr, ptr %9, align 8, !tbaa !3
  %153 = getelementptr inbounds nuw %struct.ARKodeHAdaptMemRec, ptr %152, i32 0, i32 3
  %154 = load double, ptr %153, align 8, !tbaa !20
  %155 = load double, ptr %12, align 8, !tbaa !39
  %156 = fmul double %154, %155
  %157 = call double @llvm.fabs.f64(double %156)
  %158 = fcmp ogt double %151, %157
  br i1 %158, label %159, label %162

159:                                              ; preds = %146
  %160 = load double, ptr %15, align 8, !tbaa !39
  %161 = call double @llvm.fabs.f64(double %160)
  br label %169

162:                                              ; preds = %146
  %163 = load ptr, ptr %9, align 8, !tbaa !3
  %164 = getelementptr inbounds nuw %struct.ARKodeHAdaptMemRec, ptr %163, i32 0, i32 3
  %165 = load double, ptr %164, align 8, !tbaa !20
  %166 = load double, ptr %12, align 8, !tbaa !39
  %167 = fmul double %165, %166
  %168 = call double @llvm.fabs.f64(double %167)
  br label %169

169:                                              ; preds = %162, %159
  %170 = phi double [ %161, %159 ], [ %168, %162 ]
  %171 = fmul double %149, %170
  store double %171, ptr %15, align 8, !tbaa !39
  %172 = load double, ptr %15, align 8, !tbaa !39
  %173 = call double @llvm.fabs.f64(double %172)
  %174 = load double, ptr %16, align 8, !tbaa !39
  %175 = call double @llvm.fabs.f64(double %174)
  %176 = fcmp olt double %173, %175
  br i1 %176, label %177, label %182

177:                                              ; preds = %169
  %178 = load ptr, ptr %9, align 8, !tbaa !3
  %179 = getelementptr inbounds nuw %struct.ARKodeHAdaptMemRec, ptr %178, i32 0, i32 19
  %180 = load i64, ptr %179, align 8, !tbaa !8
  %181 = add nsw i64 %180, 1
  store i64 %181, ptr %179, align 8, !tbaa !8
  br label %187

182:                                              ; preds = %169
  %183 = load ptr, ptr %9, align 8, !tbaa !3
  %184 = getelementptr inbounds nuw %struct.ARKodeHAdaptMemRec, ptr %183, i32 0, i32 20
  %185 = load i64, ptr %184, align 8, !tbaa !14
  %186 = add nsw i64 %185, 1
  store i64 %186, ptr %184, align 8, !tbaa !14
  br label %187

187:                                              ; preds = %182, %177
  %188 = load double, ptr %17, align 8, !tbaa !39
  %189 = load double, ptr %15, align 8, !tbaa !39
  %190 = call double @llvm.fabs.f64(double %189)
  %191 = load double, ptr %16, align 8, !tbaa !39
  %192 = call double @llvm.fabs.f64(double %191)
  %193 = fcmp olt double %190, %192
  br i1 %193, label %194, label %197

194:                                              ; preds = %187
  %195 = load double, ptr %15, align 8, !tbaa !39
  %196 = call double @llvm.fabs.f64(double %195)
  br label %200

197:                                              ; preds = %187
  %198 = load double, ptr %16, align 8, !tbaa !39
  %199 = call double @llvm.fabs.f64(double %198)
  br label %200

200:                                              ; preds = %197, %194
  %201 = phi double [ %196, %194 ], [ %199, %197 ]
  %202 = fmul double %188, %201
  store double %202, ptr %15, align 8, !tbaa !39
  %203 = load double, ptr %13, align 8, !tbaa !39
  %204 = fcmp ole double %203, 1.000000e+00
  br i1 %204, label %205, label %230

205:                                              ; preds = %200
  %206 = load double, ptr %15, align 8, !tbaa !39
  %207 = call double @llvm.fabs.f64(double %206)
  %208 = load double, ptr %12, align 8, !tbaa !39
  %209 = load ptr, ptr %9, align 8, !tbaa !3
  %210 = getelementptr inbounds nuw %struct.ARKodeHAdaptMemRec, ptr %209, i32 0, i32 9
  %211 = load double, ptr %210, align 8, !tbaa !26
  %212 = fmul double %208, %211
  %213 = fmul double %212, 0x3FEFFFFDE7210BE9
  %214 = call double @llvm.fabs.f64(double %213)
  %215 = fcmp ogt double %207, %214
  br i1 %215, label %216, label %229

216:                                              ; preds = %205
  %217 = load double, ptr %15, align 8, !tbaa !39
  %218 = call double @llvm.fabs.f64(double %217)
  %219 = load double, ptr %12, align 8, !tbaa !39
  %220 = load ptr, ptr %9, align 8, !tbaa !3
  %221 = getelementptr inbounds nuw %struct.ARKodeHAdaptMemRec, ptr %220, i32 0, i32 10
  %222 = load double, ptr %221, align 8, !tbaa !27
  %223 = fmul double %219, %222
  %224 = fmul double %223, 0x3FF000010C6F7A0B
  %225 = call double @llvm.fabs.f64(double %224)
  %226 = fcmp olt double %218, %225
  br i1 %226, label %227, label %229

227:                                              ; preds = %216
  %228 = load double, ptr %12, align 8, !tbaa !39
  store double %228, ptr %15, align 8, !tbaa !39
  br label %229

229:                                              ; preds = %227, %216, %205
  br label %230

230:                                              ; preds = %229, %200
  %231 = load double, ptr %15, align 8, !tbaa !39
  %232 = load double, ptr %12, align 8, !tbaa !39
  %233 = fdiv double %231, %232
  %234 = load ptr, ptr %8, align 8, !tbaa !35
  %235 = getelementptr inbounds nuw %struct.ARKodeMemRec, ptr %234, i32 0, i32 97
  store double %233, ptr %235, align 8, !tbaa !40
  %236 = load ptr, ptr %8, align 8, !tbaa !35
  %237 = getelementptr inbounds nuw %struct.ARKodeMemRec, ptr %236, i32 0, i32 97
  %238 = load double, ptr %237, align 8, !tbaa !40
  %239 = load ptr, ptr %8, align 8, !tbaa !35
  %240 = getelementptr inbounds nuw %struct.ARKodeMemRec, ptr %239, i32 0, i32 93
  %241 = load double, ptr %240, align 8, !tbaa !47
  %242 = load double, ptr %12, align 8, !tbaa !39
  %243 = call double @llvm.fabs.f64(double %242)
  %244 = fdiv double %241, %243
  %245 = fcmp ogt double %238, %244
  br i1 %245, label %246, label %250

246:                                              ; preds = %230
  %247 = load ptr, ptr %8, align 8, !tbaa !35
  %248 = getelementptr inbounds nuw %struct.ARKodeMemRec, ptr %247, i32 0, i32 97
  %249 = load double, ptr %248, align 8, !tbaa !40
  br label %257

250:                                              ; preds = %230
  %251 = load ptr, ptr %8, align 8, !tbaa !35
  %252 = getelementptr inbounds nuw %struct.ARKodeMemRec, ptr %251, i32 0, i32 93
  %253 = load double, ptr %252, align 8, !tbaa !47
  %254 = load double, ptr %12, align 8, !tbaa !39
  %255 = call double @llvm.fabs.f64(double %254)
  %256 = fdiv double %253, %255
  br label %257

257:                                              ; preds = %250, %246
  %258 = phi double [ %249, %246 ], [ %256, %250 ]
  %259 = load ptr, ptr %8, align 8, !tbaa !35
  %260 = getelementptr inbounds nuw %struct.ARKodeMemRec, ptr %259, i32 0, i32 97
  store double %258, ptr %260, align 8, !tbaa !40
  %261 = load double, ptr %12, align 8, !tbaa !39
  %262 = call double @llvm.fabs.f64(double %261)
  %263 = load ptr, ptr %8, align 8, !tbaa !35
  %264 = getelementptr inbounds nuw %struct.ARKodeMemRec, ptr %263, i32 0, i32 94
  %265 = load double, ptr %264, align 8, !tbaa !48
  %266 = fmul double %262, %265
  %267 = load ptr, ptr %8, align 8, !tbaa !35
  %268 = getelementptr inbounds nuw %struct.ARKodeMemRec, ptr %267, i32 0, i32 97
  %269 = load double, ptr %268, align 8, !tbaa !40
  %270 = fmul double %266, %269
  %271 = fcmp ogt double 1.000000e+00, %270
  br i1 %271, label %272, label %273

272:                                              ; preds = %257
  br label %284

273:                                              ; preds = %257
  %274 = load double, ptr %12, align 8, !tbaa !39
  %275 = call double @llvm.fabs.f64(double %274)
  %276 = load ptr, ptr %8, align 8, !tbaa !35
  %277 = getelementptr inbounds nuw %struct.ARKodeMemRec, ptr %276, i32 0, i32 94
  %278 = load double, ptr %277, align 8, !tbaa !48
  %279 = fmul double %275, %278
  %280 = load ptr, ptr %8, align 8, !tbaa !35
  %281 = getelementptr inbounds nuw %struct.ARKodeMemRec, ptr %280, i32 0, i32 97
  %282 = load double, ptr %281, align 8, !tbaa !40
  %283 = fmul double %279, %282
  br label %284

284:                                              ; preds = %273, %272
  %285 = phi double [ 1.000000e+00, %272 ], [ %283, %273 ]
  %286 = load ptr, ptr %8, align 8, !tbaa !35
  %287 = getelementptr inbounds nuw %struct.ARKodeMemRec, ptr %286, i32 0, i32 97
  %288 = load double, ptr %287, align 8, !tbaa !40
  %289 = fdiv double %288, %285
  store double %289, ptr %287, align 8, !tbaa !40
  %290 = load i32, ptr %14, align 4, !tbaa !46
  store i32 %290, ptr %7, align 4
  store i32 1, ptr %19, align 4
  br label %291

291:                                              ; preds = %284, %104, %86, %24
  call void @llvm.lifetime.end.p0(i64 4, ptr %18) #7
  call void @llvm.lifetime.end.p0(i64 8, ptr %17) #7
  call void @llvm.lifetime.end.p0(i64 8, ptr %16) #7
  call void @llvm.lifetime.end.p0(i64 8, ptr %15) #7
  call void @llvm.lifetime.end.p0(i64 4, ptr %14) #7
  %292 = load i32, ptr %7, align 4
  ret i32 %292
}