; Function Attrs: nounwind uwtable
define range(i32 -47, 1) i32 @arkAdapt(ptr noundef %0, ptr noundef captures(none) %1, ptr noundef %2, double noundef %3, double noundef %4, double noundef %5) local_unnamed_addr #2 {
  %7 = alloca double, align 8
  %8 = alloca double, align 8
  call void @llvm.lifetime.start.p0(i64 8, ptr nonnull %7) #9
  call void @llvm.lifetime.start.p0(i64 8, ptr nonnull %8) #9
  %9 = getelementptr inbounds nuw i8, ptr %1, i64 104
  %10 = load ptr, ptr %9, align 8, !tbaa !30
  %11 = icmp eq ptr %10, null
  br i1 %11, label %12, label %14

12:                                               ; preds = %6
  %13 = getelementptr inbounds nuw i8, ptr %0, i64 744
  store double 1.000000e+00, ptr %13, align 8, !tbaa !31
  br label %115

14:                                               ; preds = %6
  %15 = getelementptr inbounds nuw i8, ptr %1, i64 96
  %16 = load i32, ptr %15, align 8, !tbaa !24
  switch i32 %16, label %29 [
    i32 0, label %17
    i32 1, label %23
  ]

17:                                               ; preds = %14
  %18 = getelementptr inbounds nuw i8, ptr %1, i64 88
  %19 = load i32, ptr %18, align 8, !tbaa !25
  %20 = getelementptr inbounds nuw i8, ptr %1, i64 100
  %21 = load i32, ptr %20, align 4, !tbaa !27
  %22 = add nsw i32 %21, %19
  br label %37

23:                                               ; preds = %14
  %24 = getelementptr inbounds nuw i8, ptr %1, i64 92
  %25 = load i32, ptr %24, align 4, !tbaa !26
  %26 = getelementptr inbounds nuw i8, ptr %1, i64 100
  %27 = load i32, ptr %26, align 4, !tbaa !27
  %28 = add nsw i32 %27, %25
  br label %37

29:                                               ; preds = %14
  %30 = getelementptr inbounds nuw i8, ptr %1, i64 88
  %31 = load i32, ptr %30, align 8, !tbaa !25
  %32 = getelementptr inbounds nuw i8, ptr %1, i64 92
  %33 = load i32, ptr %32, align 4, !tbaa !26
  %. = tail call i32 @llvm.smin.i32(i32 %31, i32 %33)
  %34 = getelementptr inbounds nuw i8, ptr %1, i64 100
  %35 = load i32, ptr %34, align 4, !tbaa !27
  %36 = add nsw i32 %., %35
  br label %37

37:                                               ; preds = %23, %29, %17
  %.0 = phi i32 [ %22, %17 ], [ %28, %23 ], [ %36, %29 ]
  %38 = call i32 @SUNAdaptController_EstimateStep(ptr noundef nonnull %10, double noundef %4, i32 noundef %.0, double noundef %5, ptr noundef nonnull %7) #9
  %.not = icmp eq i32 %38, 0
  br i1 %.not, label %40, label %39

39:                                               ; preds = %37
  call void (ptr, i32, i32, ptr, ptr, ptr, ...) @arkProcessError(ptr noundef %0, i32 noundef -47, i32 noundef 128, ptr noundef nonnull @__func__.arkAdapt, ptr noundef nonnull @.str.20, ptr noundef nonnull @.str.21) #9
  br label %115

40:                                               ; preds = %37
  %41 = call double @llvm.fabs.f64(double %4)
  %42 = getelementptr inbounds nuw i8, ptr %1, i64 120
  %43 = load ptr, ptr %42, align 8, !tbaa !28
  %44 = getelementptr inbounds nuw i8, ptr %1, i64 128
  %45 = load ptr, ptr %44, align 8, !tbaa !29
  %46 = call i32 %43(ptr noundef %2, double noundef %3, ptr noundef nonnull %8, ptr noundef %45) #9
  %.not82 = icmp eq i32 %46, 0
  br i1 %.not82, label %48, label %47

47:                                               ; preds = %40
  call void (ptr, i32, i32, ptr, ptr, ptr, ...) @arkProcessError(ptr noundef %0, i32 noundef -22, i32 noundef 140, ptr noundef nonnull @__func__.arkAdapt, ptr noundef nonnull @.str.20, ptr noundef nonnull @.str.22) #9
  br label %115

48:                                               ; preds = %40
  %49 = fdiv double %4, %41
  %50 = load double, ptr %8, align 8, !tbaa !39
  %51 = fcmp ugt double %50, 0.000000e+00
  %52 = fmul double %41, 1.000000e+30
  %53 = select i1 %51, double %50, double %52
  %54 = getelementptr inbounds nuw i8, ptr %1, i64 56
  %55 = load double, ptr %54, align 8, !tbaa !18
  %56 = load double, ptr %7, align 8, !tbaa !39
  %57 = fmul double %55, %56
  %58 = getelementptr inbounds nuw i8, ptr %1, i64 48
  %59 = load double, ptr %58, align 8, !tbaa !17
  %60 = fmul double %49, %59
  %61 = fmul double %53, %60
  %62 = call double @llvm.fabs.f64(double %57)
  %63 = load double, ptr %1, align 8, !tbaa !3
  %64 = fmul double %4, %63
  %65 = call double @llvm.fabs.f64(double %64)
  %66 = fcmp olt double %62, %65
  %.83 = select i1 %66, double %62, double %65
  %67 = fmul double %49, %.83
  %68 = call double @llvm.fabs.f64(double %67)
  %69 = getelementptr inbounds nuw i8, ptr %1, i64 24
  %70 = load double, ptr %69, align 8, !tbaa !14
  %71 = fmul double %4, %70
  %72 = call double @llvm.fabs.f64(double %71)
  %73 = fcmp ogt double %68, %72
  %74 = select i1 %73, double %68, double %72
  %75 = fmul double %49, %74
  %76 = call double @llvm.fabs.f64(double %75)
  %77 = call double @llvm.fabs.f64(double %61)
  %78 = fcmp olt double %76, %77
  %.sink88 = select i1 %78, i64 136, i64 144
  %.84 = select i1 %78, double %76, double %77
  %79 = getelementptr inbounds nuw i8, ptr %1, i64 %.sink88
  %80 = load i64, ptr %79, align 8, !tbaa !40
  %81 = add nsw i64 %80, 1
  store i64 %81, ptr %79, align 8, !tbaa !40
  %82 = fmul double %49, %.84
  %83 = fcmp ugt double %5, 1.000000e+00
  br i1 %83, label %100, label %84

84:                                               ; preds = %48
  %85 = call double @llvm.fabs.f64(double %82)
  %86 = getelementptr inbounds nuw i8, ptr %1, i64 72
  %87 = load double, ptr %86, align 8, !tbaa !20
  %88 = fmul double %4, %87
  %89 = fmul double %88, 0x3FEFFFFDE7210BE9
  %90 = call double @llvm.fabs.f64(double %89)
  %91 = fcmp ogt double %85, %90
  br i1 %91, label %92, label %100

92:                                               ; preds = %84
  %93 = getelementptr inbounds nuw i8, ptr %1, i64 80
  %94 = load double, ptr %93, align 8, !tbaa !21
  %95 = fmul double %4, %94
  %96 = fmul double %95, 0x3FF000010C6F7A0B
  %97 = call double @llvm.fabs.f64(double %96)
  %98 = fcmp olt double %85, %97
  br i1 %98, label %99, label %100

99:                                               ; preds = %92
  br label %100

100:                                              ; preds = %84, %92, %99, %48
  %101 = phi double [ %82, %84 ], [ %82, %92 ], [ %4, %99 ], [ %82, %48 ]
  %102 = fdiv double %101, %4
  %103 = getelementptr inbounds nuw i8, ptr %0, i64 744
  %104 = getelementptr inbounds nuw i8, ptr %0, i64 712
  %105 = load double, ptr %104, align 8, !tbaa !41
  %106 = fdiv double %105, %41
  %107 = fcmp ogt double %102, %106
  %.85 = select i1 %107, double %102, double %106
  %108 = getelementptr inbounds nuw i8, ptr %0, i64 720
  %109 = load double, ptr %108, align 8, !tbaa !42
  %110 = fmul double %41, %109
  %111 = fmul double %110, %.85
  %112 = fcmp olt double %111, 1.000000e+00
  %113 = select i1 %112, double 1.000000e+00, double %111
  %114 = fdiv double %.85, %113
  store double %114, ptr %103, align 8, !tbaa !31
  br label %115

115:                                              ; preds = %100, %47, %39, %12
  %.067 = phi i32 [ 0, %12 ], [ -47, %39 ], [ -22, %47 ], [ 0, %100 ]
  call void @llvm.lifetime.end.p0(i64 8, ptr nonnull %8) #9
  call void @llvm.lifetime.end.p0(i64 8, ptr nonnull %7) #9
  ret i32 %.067
}